; Function Attrs: nounwind uwtable
define internal ptr @OrderedDict_popitem(ptr noundef %0, ptr noundef %1, i64 noundef %2, ptr noundef %3) #0 {
  %5 = alloca [1 x ptr], align 8
  call void @llvm.lifetime.start.p0(i64 8, ptr nonnull %5) #8
  %.not = icmp eq ptr %3, null
  br i1 %.not, label %7, label %.thread

.thread:                                          ; preds = %4
  %6 = getelementptr i8, ptr %3, i64 16
  %.val = load i64, ptr %6, align 8, !tbaa !146
  br label %10

7:                                                ; preds = %4
  %8 = icmp ult i64 %2, 2
  %9 = icmp ne ptr %1, null
  %or.cond5 = and i1 %9, %8
  br i1 %or.cond5, label %.thread31, label %10

10:                                               ; preds = %7, %.thread
  %11 = phi i64 [ %.val, %.thread ], [ 0, %7 ]
  %12 = call ptr @_PyArg_UnpackKeywords(ptr noundef %1, i64 noundef %2, ptr noundef null, ptr noundef %3, ptr noundef nonnull @OrderedDict_popitem._parser, i32 noundef 0, i32 noundef 1, i32 noundef 0, i32 noundef 0, ptr noundef nonnull %5) #8
  %.not27 = icmp eq ptr %12, null
  br i1 %.not27, label %OrderedDict_popitem_impl.exit, label %.thread31

.thread31:                                        ; preds = %7, %10
  %13 = phi ptr [ %12, %10 ], [ %1, %7 ]
  %14 = phi i64 [ %11, %10 ], [ 0, %7 ]
  %15 = sub i64 0, %14
  %.not28 = icmp eq i64 %2, %15
  br i1 %.not28, label %.thread33, label %16

16:                                               ; preds = %.thread31
  %17 = load ptr, ptr %13, align 8, !tbaa !53
  %18 = call i32 @PyObject_IsTrue(ptr noundef %17) #8
  %19 = icmp slt i32 %18, 0
  br i1 %19, label %OrderedDict_popitem_impl.exit, label %20

20:                                               ; preds = %16
  %21 = getelementptr inbounds nuw i8, ptr %0, i64 48
  %22 = load ptr, ptr %21, align 8, !tbaa !41
  %23 = icmp eq ptr %22, null
  br i1 %23, label %27, label %29

.thread33:                                        ; preds = %.thread31
  %24 = getelementptr inbounds nuw i8, ptr %0, i64 48
  %25 = load ptr, ptr %24, align 8, !tbaa !41
  %26 = icmp eq ptr %25, null
  br i1 %26, label %27, label %.thread36

27:                                               ; preds = %.thread33, %20
  %28 = load ptr, ptr @PyExc_KeyError, align 8, !tbaa !53
  call void @PyErr_SetString(ptr noundef %28, ptr noundef nonnull @.str.32) #8
  br label %OrderedDict_popitem_impl.exit

29:                                               ; preds = %20
  %.not.i = icmp eq i32 %18, 0
  br i1 %.not.i, label %32, label %.thread36

.thread36:                                        ; preds = %.thread33, %29
  %30 = getelementptr inbounds nuw i8, ptr %0, i64 56
  %31 = load ptr, ptr %30, align 8, !tbaa !139
  br label %32

32:                                               ; preds = %.thread36, %29
  %33 = phi ptr [ %31, %.thread36 ], [ %22, %29 ]
  %34 = load ptr, ptr %33, align 8, !tbaa !44
  %35 = load i32, ptr %34, align 8, !tbaa !38
  %36 = icmp slt i32 %35, 0
  br i1 %36, label %_Py_NewRef.exit.i, label %37

37:                                               ; preds = %32
  %38 = add nuw i32 %35, 1
  store i32 %38, ptr %34, align 8, !tbaa !38
  br label %_Py_NewRef.exit.i

_Py_NewRef.exit.i:                                ; preds = %37, %32
  %39 = getelementptr inbounds nuw i8, ptr %33, i64 8
  %40 = load i64, ptr %39, align 8, !tbaa !138
  %41 = call fastcc ptr @_odict_popkey_hash(ptr noundef nonnull %0, ptr noundef nonnull %34, ptr noundef null, i64 noundef %40)
  %42 = icmp eq ptr %41, null
  br i1 %42, label %OrderedDict_popitem_impl.exit, label %43

43:                                               ; preds = %_Py_NewRef.exit.i
  %44 = call ptr (i64, ...) @PyTuple_Pack(i64 noundef 2, ptr noundef nonnull %34, ptr noundef nonnull %41) #8
  %45 = load i32, ptr %34, align 8, !tbaa !38
  %.not.i16.i = icmp sgt i32 %45, -1
  br i1 %.not.i16.i, label %46, label %Py_DECREF.exit17.i

46:                                               ; preds = %43
  %47 = add nsw i32 %45, -1
  store i32 %47, ptr %34, align 8, !tbaa !38
  %48 = icmp eq i32 %47, 0
  br i1 %48, label %49, label %Py_DECREF.exit17.i

49:                                               ; preds = %46
  call void @_Py_Dealloc(ptr noundef nonnull %34) #8
  br label %Py_DECREF.exit17.i

Py_DECREF.exit17.i:                               ; preds = %49, %46, %43
  %50 = load i32, ptr %41, align 8, !tbaa !38
  %.not.i.i = icmp sgt i32 %50, -1
  br i1 %.not.i.i, label %51, label %OrderedDict_popitem_impl.exit

51:                                               ; preds = %Py_DECREF.exit17.i
  %52 = add nsw i32 %50, -1
  store i32 %52, ptr %41, align 8, !tbaa !38
  %53 = icmp eq i32 %52, 0
  br i1 %53, label %54, label %OrderedDict_popitem_impl.exit

54:                                               ; preds = %51
  call void @_Py_Dealloc(ptr noundef nonnull %41) #8
  br label %OrderedDict_popitem_impl.exit

OrderedDict_popitem_impl.exit:                    ; preds = %54, %51, %Py_DECREF.exit17.i, %_Py_NewRef.exit.i, %27, %16, %10
  %.022 = phi ptr [ null, %16 ], [ null, %10 ], [ null, %27 ], [ null, %_Py_NewRef.exit.i ], [ %44, %Py_DECREF.exit17.i ], [ %44, %51 ], [ %44, %54 ]
  call void @llvm.lifetime.end.p0(i64 8, ptr nonnull %5) #8
  ret ptr %.022
}